; Function Attrs: inlinehint mustprogress uwtable
define internal noundef ptr @"_ZZN12_GLOBAL__N_146proj_context_proj_context_set_file_finder_Test8TestBodyEvEN3$_08__invokeEP6pj_ctxPKcPv"(ptr noundef %0, ptr noundef %1, ptr noundef initializes((0, 8)) %2) #14 align 2 personality ptr @__gxx_personality_v0 {
  store ptr %0, ptr %2, align 8, !tbaa !28
  %4 = getelementptr inbounds nuw i8, ptr %2, i64 8
  %5 = getelementptr inbounds nuw i8, ptr %2, i64 40
  tail call void @_ZNSt7__cxx1112basic_stringIcSt11char_traitsIcESaIcEE9_M_assignERKS4_(ptr noundef nonnull align 8 dereferenceable(32) %5, ptr noundef nonnull align 8 dereferenceable(32) %4)
  %6 = getelementptr inbounds nuw i8, ptr %2, i64 48
  %7 = load i64, ptr %6, align 8, !tbaa !23
  %8 = add i64 %7, 1
  %9 = load ptr, ptr %5, align 8, !tbaa !47
  %10 = getelementptr inbounds nuw i8, ptr %2, i64 56
  %11 = icmp eq ptr %9, %10
  br i1 %11, label %12, label %_ZNKSt7__cxx1112basic_stringIcSt11char_traitsIcESaIcEE8capacityEv.exit.i.i.i

12:                                               ; preds = %3
  %13 = icmp ult i64 %7, 16
  tail call void @llvm.assume(i1 %13)
  br label %_ZNKSt7__cxx1112basic_stringIcSt11char_traitsIcESaIcEE8capacityEv.exit.i.i.i

_ZNKSt7__cxx1112basic_stringIcSt11char_traitsIcESaIcEE8capacityEv.exit.i.i.i: ; preds = %12, %3
  %14 = load i64, ptr %10, align 8
  %15 = select i1 %11, i64 15, i64 %14
  %16 = icmp ugt i64 %8, %15
  br i1 %16, label %17, label %_ZNSt7__cxx1112basic_stringIcSt11char_traitsIcESaIcEEpLEc.exit.i

17:                                               ; preds = %_ZNKSt7__cxx1112basic_stringIcSt11char_traitsIcESaIcEE8capacityEv.exit.i.i.i
  tail call void @_ZNSt7__cxx1112basic_stringIcSt11char_traitsIcESaIcEE9_M_mutateEmmPKcm(ptr noundef nonnull align 8 dereferenceable(32) %5, i64 noundef %7, i64 noundef 0, ptr noundef null, i64 noundef 1)
  %.pre.i.i.i = load ptr, ptr %5, align 8, !tbaa !47
  br label %_ZNSt7__cxx1112basic_stringIcSt11char_traitsIcESaIcEEpLEc.exit.i

_ZNSt7__cxx1112basic_stringIcSt11char_traitsIcESaIcEEpLEc.exit.i: ; preds = %17, %_ZNKSt7__cxx1112basic_stringIcSt11char_traitsIcESaIcEE8capacityEv.exit.i.i.i
  %18 = phi ptr [ %.pre.i.i.i, %17 ], [ %9, %_ZNKSt7__cxx1112basic_stringIcSt11char_traitsIcESaIcEE8capacityEv.exit.i.i.i ]
  %19 = getelementptr inbounds nuw i8, ptr %18, i64 %7
  store i8 47, ptr %19, align 1, !tbaa !25
  store i64 %8, ptr %6, align 8, !tbaa !23
  %20 = load ptr, ptr %5, align 8, !tbaa !47
  %21 = getelementptr inbounds nuw i8, ptr %20, i64 %8
  store i8 0, ptr %21, align 1, !tbaa !25
  %22 = tail call noundef i64 @strlen(ptr noundef nonnull dereferenceable(1) %1) #19
  %23 = load i64, ptr %6, align 8, !tbaa !23
  %24 = sub i64 4611686018427387903, %23
  %25 = icmp ult i64 %24, %22
  br i1 %25, label %26, label %"_ZZN12_GLOBAL__N_146proj_context_proj_context_set_file_finder_Test8TestBodyEvENK3$_0clEP6pj_ctxPKcPv.exit"

26:                                               ; preds = %_ZNSt7__cxx1112basic_stringIcSt11char_traitsIcESaIcEEpLEc.exit.i
  tail call void @_ZSt20__throw_length_errorPKc(ptr noundef nonnull @.str.21) #22
  unreachable

"_ZZN12_GLOBAL__N_146proj_context_proj_context_set_file_finder_Test8TestBodyEvENK3$_0clEP6pj_ctxPKcPv.exit": ; preds = %_ZNSt7__cxx1112basic_stringIcSt11char_traitsIcESaIcEEpLEc.exit.i
  %27 = tail call noundef nonnull align 8 dereferenceable(32) ptr @_ZNSt7__cxx1112basic_stringIcSt11char_traitsIcESaIcEE9_M_appendEPKcm(ptr noundef nonnull align 8 dereferenceable(32) %5, ptr noundef nonnull %1, i64 noundef %22)
  %28 = load ptr, ptr %5, align 8, !tbaa !47
  ret ptr %28
}